target datalayout = "e-m:e-p270:32:32-p271:32:32-p272:64:64-i64:64-i128:128-f80:128-n8:16:32:64-S128"
target triple = "x86_64-pc-linux-gnu"

; Function Attrs: mustprogress nounwind uwtable
define hidden void @_ZN15G1CollectedHeap41start_codecache_marking_cycle_if_inactiveEb(i1 noundef zeroext %0) #1 align 2 {
  %2 = alloca i8, align 1
  %3 = zext i1 %0 to i8
  store i8 %3, ptr %2, align 1
  %4 = call noundef zeroext i1 @_ZN9CodeCache26is_gc_marking_cycle_activeEv()
  br i1 %4, label %6, label %5

5:                                                ; preds = %1
  call void @_ZN9CodeCache25on_gc_marking_cycle_startEv()
  br label %6

6:                                                ; preds = %5, %1
  %7 = load i8, ptr %2, align 1
  %8 = trunc i8 %7 to i1
  br i1 %8, label %9, label %10

9:                                                ; preds = %6
  call void @_ZN9CodeCache16arm_all_nmethodsEv()
  br label %10

10:                                               ; preds = %9, %6
  ret void
}