; Function Attrs: mustprogress nounwind uwtable
define hidden void @_ZN15G1CollectedHeap41start_codecache_marking_cycle_if_inactiveEb(i1 noundef zeroext %0) local_unnamed_addr #0 align 2 {
  %2 = tail call noundef zeroext i1 @_ZN9CodeCache26is_gc_marking_cycle_activeEv() #23
  br i1 %2, label %4, label %3

3:                                                ; preds = %1
  tail call void @_ZN9CodeCache25on_gc_marking_cycle_startEv() #23
  br label %4

4:                                                ; preds = %3, %1
  br i1 %0, label %5, label %6

5:                                                ; preds = %4
  tail call void @_ZN9CodeCache16arm_all_nmethodsEv() #23
  br label %6

6:                                                ; preds = %5, %4
  ret void
}